target datalayout = "e-m:e-p270:32:32-p271:32:32-p272:64:64-i64:64-i128:128-f80:128-n8:16:32:64-S128"
target triple = "x86_64-pc-linux-gnu"

@.str.4 = private unnamed_addr constant [2 x i8] c"\0A\00", align 1
@.str.5 = private unnamed_addr constant [31 x i8] c"    add <command> [selection]\0A\00", align 1
@.str.6 = private unnamed_addr constant [76 x i8] c"This command adds objects to the design. It operates on all fully selected\0A\00", align 1
@.str.7 = private unnamed_addr constant [79 x i8] c"modules. So e.g. 'add -wire foo' will add a wire foo to all selected modules.\0A\00", align 1
@.str.8 = private unnamed_addr constant [66 x i8] c"    add {-wire|-input|-inout|-output} <name> <width> [selection]\0A\00", align 1
@.str.9 = private unnamed_addr constant [75 x i8] c"Add a wire (input, inout, output port) with the given name and width. The\0A\00", align 1
@.str.10 = private unnamed_addr constant [77 x i8] c"command will fail if the object exists already and has different properties\0A\00", align 1
@.str.11 = private unnamed_addr constant [32 x i8] c"than the object to be created.\0A\00", align 1
@.str.12 = private unnamed_addr constant [50 x i8] c"    add -global_input <name> <width> [selection]\0A\00", align 1
@.str.13 = private unnamed_addr constant [73 x i8] c"Like 'add -input', but also connect the signal between instances of the\0A\00", align 1
@.str.14 = private unnamed_addr constant [19 x i8] c"selected modules.\0A\00", align 1
@.str.15 = private unnamed_addr constant [68 x i8] c"    add {-assert|-assume|-live|-fair|-cover} <name1> [-if <name2>]\0A\00", align 1
@.str.16 = private unnamed_addr constant [78 x i8] c"Add an $assert, $assume, etc. cell connected to a wire named name1, with its\0A\00", align 1
@.str.17 = private unnamed_addr constant [75 x i8] c"enable signal optionally connected to a wire named name2 (default: 1'b1).\0A\00", align 1
@.str.18 = private unnamed_addr constant [24 x i8] c"    add -mod <name[s]>\0A\00", align 1
@.str.19 = private unnamed_addr constant [43 x i8] c"Add module[s] with the specified name[s].\0A\00", align 1

; Function Attrs: mustprogress uwtable
define internal void @_ZN12_GLOBAL__N_17AddPass4helpEv(ptr noundef nonnull align 8 dereferenceable(104) %0) unnamed_addr #4 align 2 {
  %2 = alloca ptr, align 8
  store ptr %0, ptr %2, align 8, !tbaa !6
  call void (ptr, ...) @_ZN5Yosys3logEPKcz(ptr noundef @.str.4)
  call void (ptr, ...) @_ZN5Yosys3logEPKcz(ptr noundef @.str.5)
  call void (ptr, ...) @_ZN5Yosys3logEPKcz(ptr noundef @.str.4)
  call void (ptr, ...) @_ZN5Yosys3logEPKcz(ptr noundef @.str.6)
  call void (ptr, ...) @_ZN5Yosys3logEPKcz(ptr noundef @.str.7)
  call void (ptr, ...) @_ZN5Yosys3logEPKcz(ptr noundef @.str.4)
  call void (ptr, ...) @_ZN5Yosys3logEPKcz(ptr noundef @.str.4)
  call void (ptr, ...) @_ZN5Yosys3logEPKcz(ptr noundef @.str.8)
  call void (ptr, ...) @_ZN5Yosys3logEPKcz(ptr noundef @.str.4)
  call void (ptr, ...) @_ZN5Yosys3logEPKcz(ptr noundef @.str.9)
  call void (ptr, ...) @_ZN5Yosys3logEPKcz(ptr noundef @.str.10)
  call void (ptr, ...) @_ZN5Yosys3logEPKcz(ptr noundef @.str.11)
  call void (ptr, ...) @_ZN5Yosys3logEPKcz(ptr noundef @.str.4)
  call void (ptr, ...) @_ZN5Yosys3logEPKcz(ptr noundef @.str.4)
  call void (ptr, ...) @_ZN5Yosys3logEPKcz(ptr noundef @.str.12)
  call void (ptr, ...) @_ZN5Yosys3logEPKcz(ptr noundef @.str.4)
  call void (ptr, ...) @_ZN5Yosys3logEPKcz(ptr noundef @.str.13)
  call void (ptr, ...) @_ZN5Yosys3logEPKcz(ptr noundef @.str.14)
  call void (ptr, ...) @_ZN5Yosys3logEPKcz(ptr noundef @.str.4)
  call void (ptr, ...) @_ZN5Yosys3logEPKcz(ptr noundef @.str.4)
  call void (ptr, ...) @_ZN5Yosys3logEPKcz(ptr noundef @.str.15)
  call void (ptr, ...) @_ZN5Yosys3logEPKcz(ptr noundef @.str.4)
  call void (ptr, ...) @_ZN5Yosys3logEPKcz(ptr noundef @.str.16)
  call void (ptr, ...) @_ZN5Yosys3logEPKcz(ptr noundef @.str.17)
  call void (ptr, ...) @_ZN5Yosys3logEPKcz(ptr noundef @.str.4)
  call void (ptr, ...) @_ZN5Yosys3logEPKcz(ptr noundef @.str.4)
  call void (ptr, ...) @_ZN5Yosys3logEPKcz(ptr noundef @.str.18)
  call void (ptr, ...) @_ZN5Yosys3logEPKcz(ptr noundef @.str.4)
  call void (ptr, ...) @_ZN5Yosys3logEPKcz(ptr noundef @.str.19)
  call void (ptr, ...) @_ZN5Yosys3logEPKcz(ptr noundef @.str.4)
  ret void
}